; Function Attrs: mustprogress uwtable
define void @_ZN4YAML7Emitter12EmitBeginSeqEv(ptr noundef nonnull align 8 dereferenceable(72) %0) local_unnamed_addr #0 align 2 {
  %2 = load ptr, ptr %0, align 8, !tbaa !3
  %3 = load i8, ptr %2, align 8, !tbaa !21, !range !39, !noundef !40
  %4 = trunc nuw i8 %3 to i1
  br i1 %4, label %5, label %8

5:                                                ; preds = %1
  %6 = tail call noundef i32 @_ZNK4YAML12EmitterState13NextGroupTypeENS_9GroupType5valueE(ptr noundef nonnull align 8 dereferenceable(224) %2, i32 noundef 1)
  tail call void @_ZN4YAML7Emitter11PrepareNodeENS_15EmitterNodeType5valueE(ptr noundef nonnull align 8 dereferenceable(72) %0, i32 noundef %6)
  %7 = load ptr, ptr %0, align 8, !tbaa !3
  tail call void @_ZN4YAML12EmitterState12StartedGroupENS_9GroupType5valueE(ptr noundef nonnull align 8 dereferenceable(224) %7, i32 noundef 1)
  br label %8

8:                                                ; preds = %1, %5
  ret void
}